; Function Attrs: nounwind sspstrong uwtable
define internal noundef i64 @uniq_func(i64 %0, i64 noundef %1, i32 noundef %2, ptr noundef %3, i64 %4) #0 {
  switch i32 %2, label %8 [
    i32 0, label %rb_enum_values_pack.exit
    i32 1, label %6
  ]

6:                                                ; preds = %5
  %7 = load i64, ptr %3, align 8, !tbaa !7
  br label %rb_enum_values_pack.exit

8:                                                ; preds = %5
  %9 = sext i32 %2 to i64
  %10 = tail call i64 @rb_ary_new_from_values(i64 noundef %9, ptr noundef %3) #14
  br label %rb_enum_values_pack.exit

rb_enum_values_pack.exit:                         ; preds = %5, %6, %8
  %.0.i = phi i64 [ %7, %6 ], [ %10, %8 ], [ 4, %5 ]
  %11 = tail call i32 @rb_hash_add_new_element(i64 noundef %1, i64 noundef %.0.i, i64 noundef %.0.i) #14
  ret i64 4
}